; ModuleID = '2/717.c'
source_filename = "2/717.c"
target datalayout = "e-m:e-p270:32:32-p271:32:32-p272:64:64-i64:64-f80:128-n8:16:32:64-S128"
target triple = "x86_64-pc-linux-gnu"

%struct.anon = type { i32, [255 x i8] }

@.str = private unnamed_addr constant [3 x i8] c"%d\00", align 1
@.str.1 = private unnamed_addr constant [5 x i8] c"%d%s\00", align 1
@c = common dso_local global [255 x i32] zeroinitializer, align 16
@.str.2 = private unnamed_addr constant [7 x i8] c"%c\0A%d\0A\00", align 1
@.str.3 = private unnamed_addr constant [4 x i8] c"%d\0A\00", align 1

; Function Attrs: noinline nounwind uwtable
define dso_local i32 @main() #0 {
  %1 = alloca i32, align 4
  %2 = alloca i32, align 4
  %3 = alloca i32, align 4
  %4 = alloca i32, align 4
  %5 = alloca i8, align 1
  %6 = alloca [1000 x %struct.anon], align 16
  store i32 0, i32* %1, align 4
  store i8 0, i8* %5, align 1
  %7 = call i32 (i8*, ...) @__isoc99_scanf(i8* getelementptr inbounds ([3 x i8], [3 x i8]* @.str, i64 0, i64 0), i32* %4)
  store i32 0, i32* %2, align 4
  br label %8

8:                                                ; preds = %65, %0
  %9 = load i32, i32* %2, align 4
  %10 = load i32, i32* %4, align 4
  %11 = icmp slt i32 %9, %10
  br i1 %11, label %12, label %68

12:                                               ; preds = %8
  %13 = load i32, i32* %2, align 4
  %14 = sext i32 %13 to i64
  %15 = getelementptr inbounds [1000 x %struct.anon], [1000 x %struct.anon]* %6, i64 0, i64 %14
  %16 = getelementptr inbounds %struct.anon, %struct.anon* %15, i32 0, i32 0
  %17 = load i32, i32* %2, align 4
  %18 = sext i32 %17 to i64
  %19 = getelementptr inbounds [1000 x %struct.anon], [1000 x %struct.anon]* %6, i64 0, i64 %18
  %20 = getelementptr inbounds %struct.anon, %struct.anon* %19, i32 0, i32 1
  %21 = getelementptr inbounds [255 x i8], [255 x i8]* %20, i64 0, i64 0
  %22 = call i32 (i8*, ...) @__isoc99_scanf(i8* getelementptr inbounds ([5 x i8], [5 x i8]* @.str.1, i64 0, i64 0), i32* %16, i8* %21)
  store i32 0, i32* %3, align 4
  br label %23

23:                                               ; preds = %61, %12
  %24 = load i32, i32* %2, align 4
  %25 = sext i32 %24 to i64
  %26 = getelementptr inbounds [1000 x %struct.anon], [1000 x %struct.anon]* %6, i64 0, i64 %25
  %27 = getelementptr inbounds %struct.anon, %struct.anon* %26, i32 0, i32 1
  %28 = load i32, i32* %3, align 4
  %29 = sext i32 %28 to i64
  %30 = getelementptr inbounds [255 x i8], [255 x i8]* %27, i64 0, i64 %29
  %31 = load i8, i8* %30, align 1
  %32 = icmp ne i8 %31, 0
  br i1 %32, label %33, label %64

33:                                               ; preds = %23
  %34 = load i32, i32* %2, align 4
  %35 = sext i32 %34 to i64
  %36 = getelementptr inbounds [1000 x %struct.anon], [1000 x %struct.anon]* %6, i64 0, i64 %35
  %37 = getelementptr inbounds %struct.anon, %struct.anon* %36, i32 0, i32 1
  %38 = load i32, i32* %3, align 4
  %39 = sext i32 %38 to i64
  %40 = getelementptr inbounds [255 x i8], [255 x i8]* %37, i64 0, i64 %39
  %41 = load i8, i8* %40, align 1
  %42 = sext i8 %41 to i64
  %43 = getelementptr inbounds [255 x i32], [255 x i32]* @c, i64 0, i64 %42
  %44 = load i32, i32* %43, align 4
  %45 = add nsw i32 %44, 1
  store i32 %45, i32* %43, align 4
  %46 = load i8, i8* %5, align 1
  %47 = sext i8 %46 to i64
  %48 = getelementptr inbounds [255 x i32], [255 x i32]* @c, i64 0, i64 %47
  %49 = load i32, i32* %48, align 4
  %50 = icmp sgt i32 %45, %49
  br i1 %50, label %51, label %60

51:                                               ; preds = %33
  %52 = load i32, i32* %2, align 4
  %53 = sext i32 %52 to i64
  %54 = getelementptr inbounds [1000 x %struct.anon], [1000 x %struct.anon]* %6, i64 0, i64 %53
  %55 = getelementptr inbounds %struct.anon, %struct.anon* %54, i32 0, i32 1
  %56 = load i32, i32* %3, align 4
  %57 = sext i32 %56 to i64
  %58 = getelementptr inbounds [255 x i8], [255 x i8]* %55, i64 0, i64 %57
  %59 = load i8, i8* %58, align 1
  store i8 %59, i8* %5, align 1
  br label %60

60:                                               ; preds = %51, %33
  br label %61

61:                                               ; preds = %60
  %62 = load i32, i32* %3, align 4
  %63 = add nsw i32 %62, 1
  store i32 %63, i32* %3, align 4
  br label %23

64:                                               ; preds = %23
  br label %65

65:                                               ; preds = %64
  %66 = load i32, i32* %2, align 4
  %67 = add nsw i32 %66, 1
  store i32 %67, i32* %2, align 4
  br label %8

68:                                               ; preds = %8
  %69 = load i8, i8* %5, align 1
  %70 = sext i8 %69 to i32
  %71 = load i8, i8* %5, align 1
  %72 = sext i8 %71 to i64
  %73 = getelementptr inbounds [255 x i32], [255 x i32]* @c, i64 0, i64 %72
  %74 = load i32, i32* %73, align 4
  %75 = call i32 (i8*, ...) @printf(i8* getelementptr inbounds ([7 x i8], [7 x i8]* @.str.2, i64 0, i64 0), i32 %70, i32 %74)
  store i32 0, i32* %2, align 4
  br label %76

76:                                               ; preds = %98, %68
  %77 = load i32, i32* %2, align 4
  %78 = load i32, i32* %4, align 4
  %79 = icmp slt i32 %77, %78
  br i1 %79, label %80, label %101

80:                                               ; preds = %76
  %81 = load i32, i32* %2, align 4
  %82 = sext i32 %81 to i64
  %83 = getelementptr inbounds [1000 x %struct.anon], [1000 x %struct.anon]* %6, i64 0, i64 %82
  %84 = getelementptr inbounds %struct.anon, %struct.anon* %83, i32 0, i32 1
  %85 = getelementptr inbounds [255 x i8], [255 x i8]* %84, i64 0, i64 0
  %86 = load i8, i8* %5, align 1
  %87 = sext i8 %86 to i32
  %88 = call i8* @strchr(i8* %85, i32 %87) #3
  %89 = icmp ne i8* %88, null
  br i1 %89, label %90, label %97

90:                                               ; preds = %80
  %91 = load i32, i32* %2, align 4
  %92 = sext i32 %91 to i64
  %93 = getelementptr inbounds [1000 x %struct.anon], [1000 x %struct.anon]* %6, i64 0, i64 %92
  %94 = getelementptr inbounds %struct.anon, %struct.anon* %93, i32 0, i32 0
  %95 = load i32, i32* %94, align 4
  %96 = call i32 (i8*, ...) @printf(i8* getelementptr inbounds ([4 x i8], [4 x i8]* @.str.3, i64 0, i64 0), i32 %95)
  br label %97

97:                                               ; preds = %90, %80
  br label %98

98:                                               ; preds = %97
  %99 = load i32, i32* %2, align 4
  %100 = add nsw i32 %99, 1
  store i32 %100, i32* %2, align 4
  br label %76

101:                                              ; preds = %76
  ret i32 0
}

declare dso_local i32 @__isoc99_scanf(i8*, ...) #1

declare dso_local i32 @printf(i8*, ...) #1

; Function Attrs: nounwind readonly
declare dso_local i8* @strchr(i8*, i32) #2


!llvm.module.flags = !{!0}
!llvm.ident = !{!1}

!0 = !{i32 1, !"wchar_size", i32 4}
!1 = !{!"clang version 10.0.0-4ubuntu1 "}
